target datalayout = "e-m:e-p270:32:32-p271:32:32-p272:64:64-i64:64-i128:128-f80:128-n8:16:32:64-S128"
target triple = "x86_64-unknown-linux-gnu"

%"class.icu_75::UnicodeString" = type { %"class.icu_75::Replaceable", %"union.icu_75::UnicodeString::StackBufferOrFields" }
%"class.icu_75::Replaceable" = type { %"class.icu_75::UObject" }
%"class.icu_75::UObject" = type { ptr }
%"union.icu_75::UnicodeString::StackBufferOrFields" = type { %struct.anon.0, [32 x i8] }
%struct.anon.0 = type { i16, i32, i32, ptr }
%"class.icu_75::UnicodeStringAppendable" = type { %"class.icu_75::Appendable", ptr }
%"class.icu_75::Appendable" = type { %"class.icu_75::UObject" }

; Function Attrs: mustprogress nounwind uwtable
define linkonce_odr noundef signext i8 @_ZNK6icu_7513UnicodeString10isWritableEv(ptr noundef nonnull align 8 dereferenceable(64) %this) #0 comdat align 2 {
entry:
  %this.addr = alloca ptr, align 8
  store ptr %this, ptr %this.addr, align 8
  %this1 = load ptr, ptr %this.addr, align 8
  %fUnion = getelementptr inbounds %"class.icu_75::UnicodeString", ptr %this1, i32 0, i32 1
  %fLengthAndFlags = getelementptr inbounds %struct.anon.0, ptr %fUnion, i32 0, i32 0
  %0 = load i16, ptr %fLengthAndFlags, align 8
  %conv = sext i16 %0 to i32
  %and = and i32 %conv, 17
  %tobool = icmp ne i32 %and, 0
  %lnot = xor i1 %tobool, true
  %conv2 = zext i1 %lnot to i8
  ret i8 %conv2
}

; Function Attrs: mustprogress uwtable
define noundef signext i8 @_ZN6icu_7523UnicodeStringAppendable15appendCodePointEi(ptr noundef nonnull align 8 dereferenceable(16) %this, i32 noundef %c) unnamed_addr #3 align 2 {
entry:
  %this.addr = alloca ptr, align 8
  %c.addr = alloca i32, align 4
  %buffer = alloca [2 x i16], align 2
  %cLength = alloca i32, align 4
  %isError = alloca i8, align 1
  store ptr %this, ptr %this.addr, align 8
  store i32 %c, ptr %c.addr, align 4
  %this1 = load ptr, ptr %this.addr, align 8
  store i32 0, ptr %cLength, align 4
  store i8 0, ptr %isError, align 1
  br label %do.body

do.body:                                          ; preds = %entry
  %0 = load i32, ptr %c.addr, align 4
  %cmp = icmp ule i32 %0, 65535
  br i1 %cmp, label %if.then, label %if.else

if.then:                                          ; preds = %do.body
  %1 = load i32, ptr %c.addr, align 4
  %conv = trunc i32 %1 to i16
  %2 = load i32, ptr %cLength, align 4
  %inc = add nsw i32 %2, 1
  store i32 %inc, ptr %cLength, align 4
  %idxprom = sext i32 %2 to i64
  %arrayidx = getelementptr inbounds [2 x i16], ptr %buffer, i64 0, i64 %idxprom
  store i16 %conv, ptr %arrayidx, align 2
  br label %if.end15

if.else:                                          ; preds = %do.body
  %3 = load i32, ptr %c.addr, align 4
  %cmp2 = icmp ule i32 %3, 1114111
  br i1 %cmp2, label %land.lhs.true, label %if.else14

land.lhs.true:                                    ; preds = %if.else
  %4 = load i32, ptr %cLength, align 4
  %add = add nsw i32 %4, 1
  %cmp3 = icmp slt i32 %add, 2
  br i1 %cmp3, label %if.then4, label %if.else14

if.then4:                                         ; preds = %land.lhs.true
  %5 = load i32, ptr %c.addr, align 4
  %shr = ashr i32 %5, 10
  %add5 = add nsw i32 %shr, 55232
  %conv6 = trunc i32 %add5 to i16
  %6 = load i32, ptr %cLength, align 4
  %inc7 = add nsw i32 %6, 1
  store i32 %inc7, ptr %cLength, align 4
  %idxprom8 = sext i32 %6 to i64
  %arrayidx9 = getelementptr inbounds [2 x i16], ptr %buffer, i64 0, i64 %idxprom8
  store i16 %conv6, ptr %arrayidx9, align 2
  %7 = load i32, ptr %c.addr, align 4
  %and = and i32 %7, 1023
  %or = or i32 %and, 56320
  %conv10 = trunc i32 %or to i16
  %8 = load i32, ptr %cLength, align 4
  %inc11 = add nsw i32 %8, 1
  store i32 %inc11, ptr %cLength, align 4
  %idxprom12 = sext i32 %8 to i64
  %arrayidx13 = getelementptr inbounds [2 x i16], ptr %buffer, i64 0, i64 %idxprom12
  store i16 %conv10, ptr %arrayidx13, align 2
  br label %if.end

if.else14:                                        ; preds = %land.lhs.true, %if.else
  store i8 1, ptr %isError, align 1
  br label %if.end

if.end:                                           ; preds = %if.else14, %if.then4
  br label %if.end15

if.end15:                                         ; preds = %if.end, %if.then
  br label %do.end

do.end:                                           ; preds = %if.end15
  %9 = load i8, ptr %isError, align 1
  %tobool = icmp ne i8 %9, 0
  br i1 %tobool, label %land.end, label %land.rhs

land.rhs:                                         ; preds = %do.end
  %str = getelementptr inbounds %"class.icu_75::UnicodeStringAppendable", ptr %this1, i32 0, i32 1
  %10 = load ptr, ptr %str, align 8
  %arraydecay = getelementptr inbounds [2 x i16], ptr %buffer, i64 0, i64 0
  %11 = load i32, ptr %cLength, align 4
  %call = call noundef nonnull align 8 dereferenceable(64) ptr @_ZN6icu_7513UnicodeString8doAppendEPKDsii(ptr noundef nonnull align 8 dereferenceable(64) %10, ptr noundef %arraydecay, i32 noundef 0, i32 noundef %11)
  %call16 = call noundef signext i8 @_ZNK6icu_7513UnicodeString10isWritableEv(ptr noundef nonnull align 8 dereferenceable(64) %call)
  %tobool17 = icmp ne i8 %call16, 0
  br label %land.end

land.end:                                         ; preds = %land.rhs, %do.end
  %12 = phi i1 [ false, %do.end ], [ %tobool17, %land.rhs ]
  %conv18 = zext i1 %12 to i8
  ret i8 %conv18
}