; Function Attrs: mustprogress uwtable
define noundef signext i8 @_ZN6icu_7523UnicodeStringAppendable15appendCodePointEi(ptr nocapture noundef nonnull readonly align 8 dereferenceable(16) %this, i32 noundef %c) unnamed_addr #5 align 2 {
entry:
  %buffer = alloca [2 x i16], align 2
  %cmp = icmp ult i32 %c, 65536
  br i1 %cmp, label %if.then, label %if.else

if.then:                                          ; preds = %entry
  %conv = trunc i32 %c to i16
  store i16 %conv, ptr %buffer, align 2
  br label %land.rhs

if.else:                                          ; preds = %entry
  %cmp2 = icmp ult i32 %c, 1114112
  br i1 %cmp2, label %if.then4, label %land.end

if.then4:                                         ; preds = %if.else
  %shr = lshr i32 %c, 10
  %0 = trunc i32 %shr to i16
  %conv6 = add nuw nsw i16 %0, -10304
  store i16 %conv6, ptr %buffer, align 2
  %1 = trunc i32 %c to i16
  %2 = and i16 %1, 1023
  %conv10 = or disjoint i16 %2, -9216
  %arrayidx13 = getelementptr inbounds i8, ptr %buffer, i64 2
  store i16 %conv10, ptr %arrayidx13, align 2
  br label %land.rhs

land.rhs:                                         ; preds = %if.then, %if.then4
  %cLength.0.ph = phi i32 [ 2, %if.then4 ], [ 1, %if.then ]
  %str = getelementptr inbounds i8, ptr %this, i64 8
  %3 = load ptr, ptr %str, align 8
  %call = call noundef nonnull align 8 dereferenceable(64) ptr @_ZN6icu_7513UnicodeString8doAppendEPKDsii(ptr noundef nonnull align 8 dereferenceable(64) %3, ptr noundef nonnull %buffer, i32 noundef 0, i32 noundef %cLength.0.ph)
  %fUnion.i = getelementptr inbounds i8, ptr %call, i64 8
  %4 = load i16, ptr %fUnion.i, align 8
  %5 = and i16 %4, 17
  %tobool.not.i = icmp eq i16 %5, 0
  %conv2.i = zext i1 %tobool.not.i to i8
  br label %land.end

land.end:                                         ; preds = %if.else, %land.rhs
  %conv18 = phi i8 [ %conv2.i, %land.rhs ], [ 0, %if.else ]
  ret i8 %conv18
}